; Function Attrs: mustprogress uwtable
define void @_ZN6duckdb19BatchedBufferedData9BlockSinkERKNS_14InterruptStateEm(ptr noundef nonnull align 8 dereferenceable(304) %0, ptr noundef nonnull align 8 dereferenceable(40) %1, i64 noundef %2) local_unnamed_addr #0 align 2 personality ptr @__gxx_personality_v0 {
  %4 = alloca i64, align 8
  store i64 %2, ptr %4, align 8, !tbaa !99
  %5 = getelementptr inbounds nuw i8, ptr %0, i64 40
  %6 = tail call noundef i32 @pthread_mutex_lock(ptr noundef nonnull align 8 dereferenceable(40) %5) #24
  %.not.i.i = icmp eq i32 %6, 0
  br i1 %.not.i.i, label %_ZNSt10lock_guardISt5mutexEC2ERS0_.exit, label %7

7:                                                ; preds = %3
  tail call void @_ZSt20__throw_system_errori(i32 noundef %6) #25
  unreachable

_ZNSt10lock_guardISt5mutexEC2ERS0_.exit:          ; preds = %3
  %8 = getelementptr inbounds nuw i8, ptr %0, i64 240
  %9 = invoke { ptr, i8 } @_ZNSt8_Rb_treeImSt4pairIKmN6duckdb14InterruptStateEESt10_Select1stIS4_ESt4lessImESaIS4_EE17_M_emplace_uniqueIJRmRKS3_EEES0_ISt17_Rb_tree_iteratorIS4_EbEDpOT_(ptr noundef nonnull align 8 dereferenceable(48) %8, ptr noundef nonnull align 8 dereferenceable(8) %4, ptr noundef nonnull align 8 dereferenceable(40) %1)
          to label %_ZNSt3mapImN6duckdb14InterruptStateESt4lessImESaISt4pairIKmS1_EEE7emplaceIJRmRKS1_EEES4_ISt17_Rb_tree_iteratorIS6_EbEDpOT_.exit unwind label %11

_ZNSt3mapImN6duckdb14InterruptStateESt4lessImESaISt4pairIKmS1_EEE7emplaceIJRmRKS1_EEES4_ISt17_Rb_tree_iteratorIS6_EbEDpOT_.exit: ; preds = %_ZNSt10lock_guardISt5mutexEC2ERS0_.exit
  %10 = call noundef i32 @pthread_mutex_unlock(ptr noundef nonnull align 8 dereferenceable(40) %5) #24
  ret void

11:                                               ; preds = %_ZNSt10lock_guardISt5mutexEC2ERS0_.exit
  %12 = landingpad { ptr, i32 }
          cleanup
  %13 = call noundef i32 @pthread_mutex_unlock(ptr noundef nonnull align 8 dereferenceable(40) %5) #24
  resume { ptr, i32 } %12
}